target datalayout = "e-m:e-p270:32:32-p271:32:32-p272:64:64-i64:64-i128:128-f80:128-n8:16:32:64-S128"
target triple = "x86_64-pc-linux-gnu"

%struct.Tree_Sto_t_ = type { i32, i32, [16 x i32], [16 x i32], [16 x i32], [16 x i32], [16 x %struct.Vec_Int_t_], ptr }
%struct.Vec_Int_t_ = type { i32, i32, ptr }

@.str.14 = private unnamed_addr constant [43 x i8] c"Finished dumping tree into AIG file \22%s\22.\0A\00", align 1

; Function Attrs: nounwind uwtable
define ptr @Gia_ManBuildMuxes(ptr noundef %0, ptr noundef %1) #0 {
  %3 = alloca ptr, align 8
  %4 = alloca ptr, align 8
  store ptr %0, ptr %3, align 8, !tbaa !3
  store ptr %1, ptr %4, align 8, !tbaa !44
  %5 = load ptr, ptr %3, align 8, !tbaa !3
  %6 = getelementptr inbounds nuw %struct.Tree_Sto_t_, ptr %5, i32 0, i32 7
  %7 = load ptr, ptr %6, align 8, !tbaa !14
  %8 = load ptr, ptr %3, align 8, !tbaa !3
  %9 = getelementptr inbounds nuw %struct.Tree_Sto_t_, ptr %8, i32 0, i32 0
  %10 = load i32, ptr %9, align 8, !tbaa !17
  %11 = load ptr, ptr %3, align 8, !tbaa !3
  %12 = getelementptr inbounds nuw %struct.Tree_Sto_t_, ptr %11, i32 0, i32 1
  %13 = load i32, ptr %12, align 4, !tbaa !16
  %14 = load ptr, ptr %4, align 8, !tbaa !44
  %15 = icmp ne ptr %14, null
  br i1 %15, label %16, label %18

16:                                               ; preds = %2
  %17 = load ptr, ptr %4, align 8, !tbaa !44
  br label %22

18:                                               ; preds = %2
  %19 = load ptr, ptr %3, align 8, !tbaa !3
  %20 = getelementptr inbounds nuw %struct.Tree_Sto_t_, ptr %19, i32 0, i32 4
  %21 = getelementptr inbounds [16 x i32], ptr %20, i64 0, i64 0
  br label %22

22:                                               ; preds = %18, %16
  %23 = phi ptr [ %17, %16 ], [ %21, %18 ]
  %24 = call ptr @Gia_ManBuildMuxesTest(ptr noundef %7, i32 noundef %10, i32 noundef %13, ptr noundef %23)
  ret ptr %24
}

; Function Attrs: nounwind uwtable
define void @Gia_ManTreeFree(ptr noundef %0) #0 {
  %2 = alloca ptr, align 8
  %3 = alloca i32, align 4
  store ptr %0, ptr %2, align 8, !tbaa !3
  call void @llvm.lifetime.start.p0(i64 4, ptr %3) #13
  store i32 0, ptr %3, align 4, !tbaa !9
  br label %4

4:                                                ; preds = %32, %1
  %5 = load i32, ptr %3, align 4, !tbaa !9
  %6 = icmp slt i32 %5, 16
  br i1 %6, label %7, label %35

7:                                                ; preds = %4
  %8 = load ptr, ptr %2, align 8, !tbaa !3
  %9 = getelementptr inbounds nuw %struct.Tree_Sto_t_, ptr %8, i32 0, i32 6
  %10 = load i32, ptr %3, align 4, !tbaa !9
  %11 = sext i32 %10 to i64
  %12 = getelementptr inbounds [16 x %struct.Vec_Int_t_], ptr %9, i64 0, i64 %11
  %13 = getelementptr inbounds nuw %struct.Vec_Int_t_, ptr %12, i32 0, i32 2
  %14 = load ptr, ptr %13, align 8, !tbaa !26
  %15 = icmp ne ptr %14, null
  br i1 %15, label %16, label %30

16:                                               ; preds = %7
  %17 = load ptr, ptr %2, align 8, !tbaa !3
  %18 = getelementptr inbounds nuw %struct.Tree_Sto_t_, ptr %17, i32 0, i32 6
  %19 = load i32, ptr %3, align 4, !tbaa !9
  %20 = sext i32 %19 to i64
  %21 = getelementptr inbounds [16 x %struct.Vec_Int_t_], ptr %18, i64 0, i64 %20
  %22 = getelementptr inbounds nuw %struct.Vec_Int_t_, ptr %21, i32 0, i32 2
  %23 = load ptr, ptr %22, align 8, !tbaa !26
  call void @free(ptr noundef %23) #13
  %24 = load ptr, ptr %2, align 8, !tbaa !3
  %25 = getelementptr inbounds nuw %struct.Tree_Sto_t_, ptr %24, i32 0, i32 6
  %26 = load i32, ptr %3, align 4, !tbaa !9
  %27 = sext i32 %26 to i64
  %28 = getelementptr inbounds [16 x %struct.Vec_Int_t_], ptr %25, i64 0, i64 %27
  %29 = getelementptr inbounds nuw %struct.Vec_Int_t_, ptr %28, i32 0, i32 2
  store ptr null, ptr %29, align 8, !tbaa !26
  br label %31

30:                                               ; preds = %7
  br label %31

31:                                               ; preds = %30, %16
  br label %32

32:                                               ; preds = %31
  %33 = load i32, ptr %3, align 4, !tbaa !9
  %34 = add nsw i32 %33, 1
  store i32 %34, ptr %3, align 4, !tbaa !9
  br label %4, !llvm.loop !28

35:                                               ; preds = %4
  %36 = load ptr, ptr %2, align 8, !tbaa !3
  %37 = getelementptr inbounds nuw %struct.Tree_Sto_t_, ptr %36, i32 0, i32 7
  %38 = load ptr, ptr %37, align 8, !tbaa !14
  %39 = icmp ne ptr %38, null
  br i1 %39, label %40, label %46

40:                                               ; preds = %35
  %41 = load ptr, ptr %2, align 8, !tbaa !3
  %42 = getelementptr inbounds nuw %struct.Tree_Sto_t_, ptr %41, i32 0, i32 7
  %43 = load ptr, ptr %42, align 8, !tbaa !14
  call void @free(ptr noundef %43) #13
  %44 = load ptr, ptr %2, align 8, !tbaa !3
  %45 = getelementptr inbounds nuw %struct.Tree_Sto_t_, ptr %44, i32 0, i32 7
  store ptr null, ptr %45, align 8, !tbaa !14
  br label %47

46:                                               ; preds = %35
  br label %47

47:                                               ; preds = %46, %40
  %48 = load ptr, ptr %2, align 8, !tbaa !3
  %49 = icmp ne ptr %48, null
  br i1 %49, label %50, label %52

50:                                               ; preds = %47
  %51 = load ptr, ptr %2, align 8, !tbaa !3
  call void @free(ptr noundef %51) #13
  store ptr null, ptr %2, align 8, !tbaa !3
  br label %53

52:                                               ; preds = %47
  br label %53

53:                                               ; preds = %52, %50
  call void @llvm.lifetime.end.p0(i64 4, ptr %3) #13
  ret void
}

; Function Attrs: nounwind uwtable
define void @Gia_ManDumpMuxes(ptr noundef %0, ptr noundef %1, ptr noundef %2) #0 {
  %4 = alloca ptr, align 8
  %5 = alloca ptr, align 8
  %6 = alloca ptr, align 8
  %7 = alloca ptr, align 8
  store ptr %0, ptr %4, align 8, !tbaa !3
  store ptr %1, ptr %5, align 8, !tbaa !64
  store ptr %2, ptr %6, align 8, !tbaa !44
  call void @llvm.lifetime.start.p0(i64 8, ptr %7) #13
  %8 = load ptr, ptr %4, align 8, !tbaa !3
  %9 = load ptr, ptr %6, align 8, !tbaa !44
  %10 = call ptr @Gia_ManBuildMuxes(ptr noundef %8, ptr noundef %9)
  store ptr %10, ptr %7, align 8, !tbaa !94
  %11 = load ptr, ptr %7, align 8, !tbaa !94
  %12 = load ptr, ptr %5, align 8, !tbaa !64
  call void @Gia_AigerWrite(ptr noundef %11, ptr noundef %12, i32 noundef 0, i32 noundef 0, i32 noundef 0)
  %13 = load ptr, ptr %7, align 8, !tbaa !94
  call void @Gia_ManStop(ptr noundef %13)
  %14 = load ptr, ptr %5, align 8, !tbaa !64
  %15 = call i32 (ptr, ...) @printf(ptr noundef @.str.14, ptr noundef %14)
  call void @llvm.lifetime.end.p0(i64 8, ptr %7) #13
  ret void
}

; Function Attrs: nounwind uwtable
define void @Gia_ManDumpMuxGia(ptr noundef %0, i32 noundef %1, i32 noundef %2, i32 noundef %3, ptr noundef %4, ptr noundef %5) #0 {
  %7 = alloca ptr, align 8
  %8 = alloca i32, align 4
  %9 = alloca i32, align 4
  %10 = alloca i32, align 4
  %11 = alloca ptr, align 8
  %12 = alloca ptr, align 8
  %13 = alloca ptr, align 8
  store ptr %0, ptr %7, align 8, !tbaa !12
  store i32 %1, ptr %8, align 4, !tbaa !9
  store i32 %2, ptr %9, align 4, !tbaa !9
  store i32 %3, ptr %10, align 4, !tbaa !9
  store ptr %4, ptr %11, align 8, !tbaa !44
  store ptr %5, ptr %12, align 8, !tbaa !64
  call void @llvm.lifetime.start.p0(i64 8, ptr %13) #13
  %14 = load ptr, ptr %7, align 8, !tbaa !12
  %15 = load i32, ptr %8, align 4, !tbaa !9
  %16 = load i32, ptr %9, align 4, !tbaa !9
  %17 = load i32, ptr %10, align 4, !tbaa !9
  %18 = call ptr @Gia_ManContructTree(ptr noundef %14, i32 noundef %15, i32 noundef %16, i32 noundef %17)
  store ptr %18, ptr %13, align 8, !tbaa !3
  %19 = load ptr, ptr %13, align 8, !tbaa !3
  %20 = load ptr, ptr %12, align 8, !tbaa !64
  %21 = load ptr, ptr %11, align 8, !tbaa !44
  call void @Gia_ManDumpMuxes(ptr noundef %19, ptr noundef %20, ptr noundef %21)
  %22 = load ptr, ptr %13, align 8, !tbaa !3
  call void @Gia_ManTreeFree(ptr noundef %22)
  call void @llvm.lifetime.end.p0(i64 8, ptr %13) #13
  ret void
}