; Function Attrs: nounwind uwtable
define void @Gia_ManDumpMuxGia(ptr noundef readonly captures(none) %0, i32 noundef %1, i32 noundef %2, i32 noundef %3, ptr noundef %4, ptr noundef %5) local_unnamed_addr #0 {
  %7 = tail call ptr @Gia_ManContructTree(ptr noundef %0, i32 noundef %1, i32 noundef %2, i32 noundef %3)
  %8 = getelementptr inbounds nuw i8, ptr %7, i64 520
  %9 = load ptr, ptr %8, align 8, !tbaa !12
  %10 = load i32, ptr %7, align 8, !tbaa !15
  %11 = getelementptr inbounds nuw i8, ptr %7, i64 4
  %12 = load i32, ptr %11, align 4, !tbaa !14
  %.not.i.i = icmp eq ptr %4, null
  %13 = getelementptr inbounds nuw i8, ptr %7, i64 136
  %14 = select i1 %.not.i.i, ptr %13, ptr %4
  %15 = tail call ptr @Gia_ManBuildMuxesTest(ptr noundef %9, i32 noundef %10, i32 noundef %12, ptr noundef nonnull %14)
  tail call void @Gia_AigerWrite(ptr noundef %15, ptr noundef %5, i32 noundef 0, i32 noundef 0, i32 noundef 0) #24
  tail call void @Gia_ManStop(ptr noundef %15) #24
  %16 = tail call i32 (ptr, ...) @printf(ptr noundef nonnull dereferenceable(1) @.str.14, ptr noundef %5)
  %17 = getelementptr i8, ptr %7, i64 272
  br label %18

18:                                               ; preds = %23, %6
  %indvars.iv.i = phi i64 [ 0, %6 ], [ %indvars.iv.next.i, %23 ]
  %19 = shl nuw nsw i64 %indvars.iv.i, 4
  %20 = getelementptr i8, ptr %17, i64 %19
  %21 = load ptr, ptr %20, align 8, !tbaa !21
  %.not16.i = icmp eq ptr %21, null
  br i1 %.not16.i, label %23, label %22

22:                                               ; preds = %18
  tail call void @free(ptr noundef nonnull %21) #24
  store ptr null, ptr %20, align 8, !tbaa !21
  br label %23

23:                                               ; preds = %22, %18
  %indvars.iv.next.i = add nuw nsw i64 %indvars.iv.i, 1
  %exitcond.not.i = icmp eq i64 %indvars.iv.next.i, 16
  br i1 %exitcond.not.i, label %24, label %18, !llvm.loop !26

24:                                               ; preds = %23
  %25 = load ptr, ptr %8, align 8, !tbaa !12
  %.not.i = icmp eq ptr %25, null
  br i1 %.not.i, label %Gia_ManTreeFree.exit, label %26

26:                                               ; preds = %24
  tail call void @free(ptr noundef nonnull %25) #24
  br label %Gia_ManTreeFree.exit

Gia_ManTreeFree.exit:                             ; preds = %24, %26
  tail call void @free(ptr noundef nonnull %7) #24
  ret void
}